Certificate:
    Data:
        Version: 3 (0x2)
        Serial Number: 1 (0x1)
    Signature Algorithm: md5WithRSAEncryption
        Issuer: CN=My Test CA, ST=HZ, C=CN/emailAddress=test@cert.com, O=Root Certification Authority
        Validity
            Not Before: May  8 01:45:15 2019 GMT
            Not After : May  7 01:45:15 2020 GMT
        Subject: CN=scut.tanglab.tang, ST=GD, C=CN/emailAddress=12345@126.com, O=SCUT, OU=TANGLAB
        Subject Public Key Info:
            Public Key Algorithm: rsaEncryption
                Public-Key: (1024 bit)
                Modulus:
                    00:f1:b5:dc:6b:98:85:c0:17:35:d3:70:3c:03:9a:
                    19:18:1b:f5:f1:6d:f7:7c:40:d0:f5:cf:da:05:94:
                    f3:ee:74:61:fb:bc:f9:8b:3c:6b:b4:4d:7f:03:bc:
                    81:35:c3:1c:63:50:2e:93:93:92:f1:ec:49:64:b9:
                    33:d7:65:9d:bf:b9:a5:0f:2a:c9:99:e4:4a:0c:13:
                    84:30:5c:31:35:ea:f5:d7:15:c0:40:1c:89:84:7b:
                    bb:82:c9:6b:44:18:71:0f:f7:99:71:88:19:ae:92:
                    e7:97:d5:7c:bc:ec:ac:ae:1e:62:8e:ce:41:09:9f:
                    8c:b3:73:87:69:02:f4:48:15
                Exponent: 65537 (0x10001)
        X509v3 extensions:
            X509v3 Basic Constraints: 
                CA:FALSE
    Signature Algorithm: md5WithRSAEncryption
         a5:ca:29:25:9f:b5:da:b2:a5:00:c1:8e:4c:b9:ad:fa:4f:94:
         fe:15:85:db:8a:dc:6c:22:bd:8c:31:e7:1f:a6:a2:9a:9c:6a:
         7c:06:13:48:8b:50:9b:b2:dc:c3:5a:6e:66:72:8d:e9:80:9f:
         1e:6c:48:b1:9e:ef:b4:30:07:81:fe:72:8c:5e:b1:2d:2b:ba:
         63:00:c8:30:7a:6d:31:64:ee:a2:f2:52:59:87:94:b0:84:96:
         26:c5:78:62:d2:4e:da:0f:d7:85:31:d4:cc:84:35:b0:05:35:
         7d:d1:83:7a:ae:3a:da:6b:6c:08:73:6f:5e:66:9a:f6:03:f4:
         f0:4e:e3:5d:28:6c:64:79:af:49:f6:0c:f2:09:6d:c6:df:5b:
         da:96:b1:a4:2a:6d:3a:c7:d4:df:47:8d:fb:00:9d:8a:4b:8d:
         82:b6:09:8e:eb:76:91:e7:22:dc:82:b4:98:bb:77:54:11:d8:
         90:e3:2c:29:70:18:17:c8:7a:1a:5f:b3:dc:d2:7d:fd:43:9d:
         cd:ed:3a:5b:fe:5d:f2:59:5e:c8:8b:95:7e:ec:f8:c4:f1:6a:
         cf:54:2a:05:4a:62:fc:ab:d5:32:25:91:00:f4:29:05:b7:4c:
         d4:48:20:11:6c:df:a3:90:b0:70:48:78:47:71:e4:dc:d8:a2:
         f1:2e:c8:1a
-----BEGIN CERTIFICATE-----
MIIC7TCCAdWgAwIBAgIBATANBgkqhkiG9w0BAQQFADB0MRMwEQYDVQQDDApNeSBU
ZXN0IENBMQswCQYDVQQIDAJIWjELMAkGA1UEBhMCQ04xHDAaBgkqhkiG9w0BCQEW
DXRlc3RAY2VydC5jb20xJTAjBgNVBAoMHFJvb3QgQ2VydGlmaWNhdGlvbiBBdXRo
b3JpdHkwHhcNMTkwNTA4MDE0NTE1WhcNMjAwNTA3MDE0NTE1WjB1MRowGAYDVQQD
DBFzY3V0LnRhbmdsYWIudGFuZzELMAkGA1UECAwCR0QxCzAJBgNVBAYTAkNOMRww
GgYJKoZIhvcNAQkBFg0xMjM0NUAxMjYuY29tMQ0wCwYDVQQKDARTQ1VUMRAwDgYD
VQQLDAdUQU5HTEFCMIGfMA0GCSqGSIb3DQEBAQUAA4GNADCBiQKBgQDxtdxrmIXA
FzXTcDwDmhkYG/Xxbfd8QND1z9oFlPPudGH7vPmLPGu0TX8DvIE1wxxjUC6Tk5Lx
7ElkuTPXZZ2/uaUPKsmZ5EoME4QwXDE16vXXFcBAHImEe7uCyWtEGHEP95lxiBmu
kueX1Xy87KyuHmKOzkEJn4yzc4dpAvRIFQIDAQABow0wCzAJBgNVHRMEAjAAMA0G
CSqGSIb3DQEBBAUAA4IBAQClyikln7XasqUAwY5Mua36T5T+FYXbitxsIr2MMecf
pqKanGp8BhNIi1CbstzDWm5mco3pgJ8ebEixnu+0MAeB/nKMXrEtK7pjAMgwem0x
ZO6i8lJZh5SwhJYmxXhi0k7aD9eFMdTMhDWwBTV90YN6rjraa2wIc29eZpr2A/Tw
TuNdKGxkea9J9gzyCW3G31valrGkKm06x9TfR437AJ2KS42CtgmO63aR5yLcgrSY
u3dUEdiQ4ywpcBgXyHoaX7Pc0n39Q53N7Tpb/l3yWV7Ii5V+7PjE8WrPVCoFSmL8
q9UyJZEA9CkFt0zUSCARbN+jkLBwSHhHceTc2KLxLsga
-----END CERTIFICATE-----
